target datalayout = "e-m:e-p270:32:32-p271:32:32-p272:64:64-i64:64-i128:128-f80:128-n8:16:32:64-S128"
target triple = "x86_64-pc-linux-gnu"

; Function Attrs: nounwind uwtable
define dso_local i32 @HeapTupleSatisfiesVacuum(ptr noundef %0, i32 noundef %1, i32 noundef %2) #0 {
  %4 = alloca ptr, align 8
  %5 = alloca i32, align 4
  %6 = alloca i32, align 4
  %7 = alloca i32, align 4
  %8 = alloca i32, align 4
  store ptr %0, ptr %4, align 8
  store i32 %1, ptr %5, align 4
  store i32 %2, ptr %6, align 4
  call void @llvm.lifetime.start.p0(i64 4, ptr %7) #4
  store i32 0, ptr %7, align 4
  call void @llvm.lifetime.start.p0(i64 4, ptr %8) #4
  %9 = load ptr, ptr %4, align 8
  %10 = load i32, ptr %6, align 4
  %11 = call i32 @HeapTupleSatisfiesVacuumHorizon(ptr noundef %9, i32 noundef %10, ptr noundef %7)
  store i32 %11, ptr %8, align 4
  %12 = load i32, ptr %8, align 4
  %13 = icmp eq i32 %12, 2
  br i1 %13, label %14, label %20

14:                                               ; preds = %3
  %15 = load i32, ptr %7, align 4
  %16 = load i32, ptr %5, align 4
  %17 = call zeroext i1 @TransactionIdPrecedes(i32 noundef %15, i32 noundef %16)
  br i1 %17, label %18, label %19

18:                                               ; preds = %14
  store i32 0, ptr %8, align 4
  br label %19

19:                                               ; preds = %18, %14
  br label %21

20:                                               ; preds = %3
  br label %21

21:                                               ; preds = %20, %19
  %22 = load i32, ptr %8, align 4
  call void @llvm.lifetime.end.p0(i64 4, ptr %8) #4
  call void @llvm.lifetime.end.p0(i64 4, ptr %7) #4
  ret i32 %22
}