; Function Attrs: nounwind uwtable
define dso_local range(i32 0, 5) i32 @HeapTupleSatisfiesVacuum(ptr noundef readonly captures(none) %0, i32 noundef %1, i32 noundef %2) local_unnamed_addr #0 {
  %4 = alloca i32, align 4
  call void @llvm.lifetime.start.p0(i64 4, ptr nonnull %4) #4
  %5 = call i32 @HeapTupleSatisfiesVacuumHorizon(ptr noundef %0, i32 noundef %2, ptr noundef nonnull %4)
  %6 = icmp eq i32 %5, 2
  br i1 %6, label %7, label %10

7:                                                ; preds = %3
  %8 = load i32, ptr %4, align 4
  %9 = tail call zeroext i1 @TransactionIdPrecedes(i32 noundef %8, i32 noundef %1) #4
  %spec.select = select i1 %9, i32 0, i32 2
  br label %10

10:                                               ; preds = %7, %3
  %.0 = phi i32 [ %5, %3 ], [ %spec.select, %7 ]
  call void @llvm.lifetime.end.p0(i64 4, ptr nonnull %4) #4
  ret i32 %.0
}